target datalayout = "e-m:e-p270:32:32-p271:32:32-p272:64:64-i64:64-i128:128-f80:128-n8:16:32:64-S128"
target triple = "x86_64-pc-linux-gnu"

; Function Attrs: nounwind uwtable
define i32 @avcodec_default_execute2(ptr noundef %0, ptr noundef %1, ptr noundef %2, ptr noundef %3, i32 noundef %4) #0 {
  %6 = alloca ptr, align 8
  %7 = alloca ptr, align 8
  %8 = alloca ptr, align 8
  %9 = alloca ptr, align 8
  %10 = alloca i32, align 4
  %11 = alloca i32, align 4
  %12 = alloca i32, align 4
  store ptr %0, ptr %6, align 8, !tbaa !4
  store ptr %1, ptr %7, align 8, !tbaa !9
  store ptr %2, ptr %8, align 8, !tbaa !9
  store ptr %3, ptr %9, align 8, !tbaa !10
  store i32 %4, ptr %10, align 4, !tbaa !12
  call void @llvm.lifetime.start.p0(i64 4, ptr %11) #13
  store i32 0, ptr %11, align 4, !tbaa !12
  br label %13

13:                                               ; preds = %32, %5
  %14 = load i32, ptr %11, align 4, !tbaa !12
  %15 = load i32, ptr %10, align 4, !tbaa !12
  %16 = icmp slt i32 %14, %15
  br i1 %16, label %17, label %35

17:                                               ; preds = %13
  call void @llvm.lifetime.start.p0(i64 4, ptr %12) #13
  %18 = load ptr, ptr %7, align 8, !tbaa !9
  %19 = load ptr, ptr %6, align 8, !tbaa !4
  %20 = load ptr, ptr %8, align 8, !tbaa !9
  %21 = load i32, ptr %11, align 4, !tbaa !12
  %22 = call i32 %18(ptr noundef %19, ptr noundef %20, i32 noundef %21, i32 noundef 0)
  store i32 %22, ptr %12, align 4, !tbaa !12
  %23 = load ptr, ptr %9, align 8, !tbaa !10
  %24 = icmp ne ptr %23, null
  br i1 %24, label %25, label %31

25:                                               ; preds = %17
  %26 = load i32, ptr %12, align 4, !tbaa !12
  %27 = load ptr, ptr %9, align 8, !tbaa !10
  %28 = load i32, ptr %11, align 4, !tbaa !12
  %29 = sext i32 %28 to i64
  %30 = getelementptr inbounds i32, ptr %27, i64 %29
  store i32 %26, ptr %30, align 4, !tbaa !12
  br label %31

31:                                               ; preds = %25, %17
  call void @llvm.lifetime.end.p0(i64 4, ptr %12) #13
  br label %32

32:                                               ; preds = %31
  %33 = load i32, ptr %11, align 4, !tbaa !12
  %34 = add nsw i32 %33, 1
  store i32 %34, ptr %11, align 4, !tbaa !12
  br label %13, !llvm.loop !18

35:                                               ; preds = %13
  br label %36

36:                                               ; preds = %35
  br label %37

37:                                               ; preds = %36
  br label %38

38:                                               ; preds = %37
  call void @llvm.lifetime.end.p0(i64 4, ptr %11) #13
  ret i32 0
}