; Function Attrs: nounwind uwtable
define noundef i32 @avcodec_default_execute2(ptr noundef %0, ptr noundef readonly captures(none) %1, ptr noundef %2, ptr noundef writeonly captures(address_is_null) %3, i32 noundef %4) local_unnamed_addr #0 {
  %6 = icmp sgt i32 %4, 0
  br i1 %6, label %.lr.ph, label %._crit_edge

.lr.ph:                                           ; preds = %5
  %.not = icmp eq ptr %3, null
  br i1 %.not, label %.lr.ph.split.us, label %.lr.ph.split.preheader

.lr.ph.split.preheader:                           ; preds = %.lr.ph
  %wide.trip.count = zext nneg i32 %4 to i64
  br label %.lr.ph.split

.lr.ph.split.us:                                  ; preds = %.lr.ph, %.lr.ph.split.us
  %.011.us = phi i32 [ %8, %.lr.ph.split.us ], [ 0, %.lr.ph ]
  %7 = tail call i32 %1(ptr noundef %0, ptr noundef %2, i32 noundef %.011.us, i32 noundef 0) #12
  %8 = add nuw nsw i32 %.011.us, 1
  %exitcond14.not = icmp eq i32 %8, %4
  br i1 %exitcond14.not, label %._crit_edge, label %.lr.ph.split.us, !llvm.loop !10

.lr.ph.split:                                     ; preds = %.lr.ph.split.preheader, %.lr.ph.split
  %indvars.iv = phi i64 [ 0, %.lr.ph.split.preheader ], [ %indvars.iv.next, %.lr.ph.split ]
  %9 = trunc nuw nsw i64 %indvars.iv to i32
  %10 = tail call i32 %1(ptr noundef %0, ptr noundef %2, i32 noundef %9, i32 noundef 0) #12
  %11 = getelementptr inbounds nuw i32, ptr %3, i64 %indvars.iv
  store i32 %10, ptr %11, align 4, !tbaa !6
  %indvars.iv.next = add nuw nsw i64 %indvars.iv, 1
  %exitcond.not = icmp eq i64 %indvars.iv.next, %wide.trip.count
  br i1 %exitcond.not, label %._crit_edge, label %.lr.ph.split, !llvm.loop !10

._crit_edge:                                      ; preds = %.lr.ph.split, %.lr.ph.split.us, %5
  ret i32 0
}